target datalayout = "e-m:e-p270:32:32-p271:32:32-p272:64:64-i64:64-i128:128-f80:128-n8:16:32:64-S128"
target triple = "x86_64-pc-linux-gnu"

@.str = private unnamed_addr constant [2 x i8] c" \00", align 1
@.str.33 = private unnamed_addr constant [44 x i8] c"%sData type: PMIX_FLOAT\09Value: NULL pointer\00", align 1
@.str.34 = private unnamed_addr constant [34 x i8] c"%sData type: PMIX_FLOAT\09Value: %f\00", align 1

; Function Attrs: nounwind uwtable
define i32 @pmix20_bfrop_print_float(ptr noundef %0, ptr noundef %1, ptr noundef %2, i16 noundef zeroext %3) #0 {
  %5 = alloca i32, align 4
  %6 = alloca ptr, align 8
  %7 = alloca ptr, align 8
  %8 = alloca ptr, align 8
  %9 = alloca i16, align 2
  %10 = alloca ptr, align 8
  %11 = alloca i32, align 4
  store ptr %0, ptr %6, align 8, !tbaa !3
  store ptr %1, ptr %7, align 8, !tbaa !8
  store ptr %2, ptr %8, align 8, !tbaa !40
  store i16 %3, ptr %9, align 2, !tbaa !11
  call void @llvm.lifetime.start.p0(i64 8, ptr %10) #7
  %12 = load ptr, ptr %7, align 8, !tbaa !8
  %13 = icmp eq ptr null, %12
  br i1 %13, label %14, label %19

14:                                               ; preds = %4
  %15 = call i32 (ptr, ptr, ...) @asprintf(ptr noundef %10, ptr noundef @.str) #7
  %16 = icmp sgt i32 0, %15
  br i1 %16, label %17, label %18

17:                                               ; preds = %14
  store i32 -32, ptr %5, align 4
  store i32 1, ptr %11, align 4
  br label %65

18:                                               ; preds = %14
  br label %21

19:                                               ; preds = %4
  %20 = load ptr, ptr %7, align 8, !tbaa !8
  store ptr %20, ptr %10, align 8, !tbaa !8
  br label %21

21:                                               ; preds = %19, %18
  %22 = load ptr, ptr %8, align 8, !tbaa !40
  %23 = icmp eq ptr null, %22
  br i1 %23, label %24, label %43

24:                                               ; preds = %21
  %25 = load ptr, ptr %6, align 8, !tbaa !3
  %26 = load ptr, ptr %10, align 8, !tbaa !8
  %27 = call i32 (ptr, ptr, ...) @asprintf(ptr noundef %25, ptr noundef @.str.33, ptr noundef %26) #7
  %28 = icmp sgt i32 0, %27
  br i1 %28, label %29, label %36

29:                                               ; preds = %24
  %30 = load ptr, ptr %10, align 8, !tbaa !8
  %31 = load ptr, ptr %7, align 8, !tbaa !8
  %32 = icmp ne ptr %30, %31
  br i1 %32, label %33, label %35

33:                                               ; preds = %29
  %34 = load ptr, ptr %10, align 8, !tbaa !8
  call void @free(ptr noundef %34) #7
  br label %35

35:                                               ; preds = %33, %29
  store i32 -32, ptr %5, align 4
  store i32 1, ptr %11, align 4
  br label %65

36:                                               ; preds = %24
  %37 = load ptr, ptr %10, align 8, !tbaa !8
  %38 = load ptr, ptr %7, align 8, !tbaa !8
  %39 = icmp ne ptr %37, %38
  br i1 %39, label %40, label %42

40:                                               ; preds = %36
  %41 = load ptr, ptr %10, align 8, !tbaa !8
  call void @free(ptr noundef %41) #7
  br label %42

42:                                               ; preds = %40, %36
  store i32 0, ptr %5, align 4
  store i32 1, ptr %11, align 4
  br label %65

43:                                               ; preds = %21
  %44 = load ptr, ptr %6, align 8, !tbaa !3
  %45 = load ptr, ptr %10, align 8, !tbaa !8
  %46 = load ptr, ptr %8, align 8, !tbaa !40
  %47 = load float, ptr %46, align 4, !tbaa !42
  %48 = fpext float %47 to double
  %49 = call i32 (ptr, ptr, ...) @asprintf(ptr noundef %44, ptr noundef @.str.34, ptr noundef %45, double noundef %48) #7
  %50 = icmp sgt i32 0, %49
  br i1 %50, label %51, label %58

51:                                               ; preds = %43
  %52 = load ptr, ptr %10, align 8, !tbaa !8
  %53 = load ptr, ptr %7, align 8, !tbaa !8
  %54 = icmp ne ptr %52, %53
  br i1 %54, label %55, label %57

55:                                               ; preds = %51
  %56 = load ptr, ptr %10, align 8, !tbaa !8
  call void @free(ptr noundef %56) #7
  br label %57

57:                                               ; preds = %55, %51
  store i32 -32, ptr %5, align 4
  store i32 1, ptr %11, align 4
  br label %65

58:                                               ; preds = %43
  %59 = load ptr, ptr %10, align 8, !tbaa !8
  %60 = load ptr, ptr %7, align 8, !tbaa !8
  %61 = icmp ne ptr %59, %60
  br i1 %61, label %62, label %64

62:                                               ; preds = %58
  %63 = load ptr, ptr %10, align 8, !tbaa !8
  call void @free(ptr noundef %63) #7
  br label %64

64:                                               ; preds = %62, %58
  store i32 0, ptr %5, align 4
  store i32 1, ptr %11, align 4
  br label %65

65:                                               ; preds = %64, %57, %42, %35, %17
  call void @llvm.lifetime.end.p0(i64 8, ptr %10) #7
  %66 = load i32, ptr %5, align 4
  ret i32 %66
}